(lp0
(S'.TelephonyManager;'
p1
S'getSubscriberId'
p2
tp3
a(S'.TelephonyManager;'
p4
S'getDeviceId'
p5
tp6
a(S'.TelephonyManager;'
p7
S'getNetworkOperator'
p8
tp9
a(S'.TelephonyManager;'
p10
S'getNetworkOperatorName'
p11
tp12
a(S'.TelephonyManager;'
p13
S'getNetworkType'
p14
tp15
a(S'.WifiInfo;'
p16
S'getMacAddress'
p17
tp18
a(S'.NetworkInterface;'
p19
S'getNetworkInterfaces'
p20
tp21
a(S'.TelephonyManager;'
p22
S'getLine1Number'
p23
tp24
a(S'.TelephonyManager;'
p25
S'getVoiceMailNumber'
p26
tp27
a(S'.TelephonyManager;'
p28
S'getSimOperator'
p29
tp30
a(S'.TelephonyManager;'
p31
S'getSimOperatorName'
p32
tp33
a(S'.TelephonyManager;'
p34
S'getSimState'
p35
tp36
a(S'.BroadcastReceiver;'
p37
S'abortBroadcast'
p38
tp39
a(S'.TelephonyManager;'
p40
S'getSimSerialNumber'
p41
tp42
a(S'.Location;'
p43
S'getLongitude'
p44
tp45
a(S'.Location;'
p46
S'getLatitude'
p47
tp48
a(S'.Camera;'
p49
S'startPreview'
p50
tp51
a(S'.Camera;'
p52
S'takePicture'
p53
tp54
a(S'.MediaRecorder;'
p55
S'setVideoSource'
p56
tp57
a(S'.MediaRecorder;'
p58
S'start'
p59
tp60
a(S'.MediaRecorder;'
p61
S'setAudioSource'
p62
tp63
a(S'.AudioRecord;'
p64
S'startRecording'
p65
tp66
a(S'.NotificationManager;'
p67
S'notify'
p68
tp69
a(S'Ljava/lang/Runtime;'
p70
S'exec'
p71
tp72
a(S'Landroid/content/pm/PackageManager;'
p73
S'deletePackage'
p74
tp75
a(S'.PathClassLoader;'
p76
S'<init>'
p77
tp78
a(S'.DexClassLoader;'
p79
S'<init>'
p80
tp81
a(S'.DexFile;'
p82
S'<init>'
p83
tp84
a(S'.DexFile;'
p85
S'loadDex'
p86
tp87
a(S'.PowerManager;'
p88
S'reboot'
p89
tp90
a(S'Ljava/lang/reflect/Method;'
p91
S'invoke'
p92
tp93
a(S'.WifiManager;'
p94
S'setWifiEnabled'
p95
tp96
a(S'.ServerSocket;'
p97
S'<init>'
p98
tp99
a.